target datalayout = "e-m:e-p270:32:32-p271:32:32-p272:64:64-i64:64-i128:128-f80:128-n8:16:32:64-S128"
target triple = "x86_64-pc-linux-gnu"

%"class.google::protobuf::StringPiece" = type { ptr, i64 }

; Function Attrs: mustprogress nounwind uwtable
define linkonce_odr noundef ptr @_ZNK6google8protobuf11StringPiece4dataEv(ptr noundef nonnull align 8 dereferenceable(16) %0) #2 comdat align 2 {
  %2 = alloca ptr, align 8
  store ptr %0, ptr %2, align 8, !tbaa !8
  %3 = load ptr, ptr %2, align 8
  %4 = getelementptr inbounds nuw %"class.google::protobuf::StringPiece", ptr %3, i32 0, i32 0
  %5 = load ptr, ptr %4, align 8, !tbaa !10
  ret ptr %5
}

; Function Attrs: mustprogress nounwind uwtable
define linkonce_odr noundef i64 @_ZNK6google8protobuf11StringPiece6lengthEv(ptr noundef nonnull align 8 dereferenceable(16) %0) #2 comdat align 2 {
  %2 = alloca ptr, align 8
  store ptr %0, ptr %2, align 8, !tbaa !8
  %3 = load ptr, ptr %2, align 8
  %4 = getelementptr inbounds nuw %"class.google::protobuf::StringPiece", ptr %3, i32 0, i32 1
  %5 = load i64, ptr %4, align 8, !tbaa !14
  ret i64 %5
}

; Function Attrs: inlinehint mustprogress uwtable
define internal void @_ZN6google8protobufL16BuildLookupTableENS0_11StringPieceEPb(ptr %0, i64 %1, ptr noundef %2) #7 {
  %4 = alloca %"class.google::protobuf::StringPiece", align 8
  %5 = alloca ptr, align 8
  %6 = alloca i64, align 8
  %7 = alloca ptr, align 8
  %8 = alloca i64, align 8
  %9 = getelementptr inbounds nuw { ptr, i64 }, ptr %4, i32 0, i32 0
  store ptr %0, ptr %9, align 8
  %10 = getelementptr inbounds nuw { ptr, i64 }, ptr %4, i32 0, i32 1
  store i64 %1, ptr %10, align 8
  store ptr %2, ptr %5, align 8, !tbaa !35
  call void @llvm.lifetime.start.p0(i64 8, ptr %6) #13
  %11 = call noundef i64 @_ZNK6google8protobuf11StringPiece6lengthEv(ptr noundef nonnull align 8 dereferenceable(16) %4)
  store i64 %11, ptr %6, align 8, !tbaa !15
  call void @llvm.lifetime.start.p0(i64 8, ptr %7) #13
  %12 = call noundef ptr @_ZNK6google8protobuf11StringPiece4dataEv(ptr noundef nonnull align 8 dereferenceable(16) %4)
  store ptr %12, ptr %7, align 8, !tbaa !16
  call void @llvm.lifetime.start.p0(i64 8, ptr %8) #13
  store i64 0, ptr %8, align 8, !tbaa !15
  br label %13

13:                                               ; preds = %26, %3
  %14 = load i64, ptr %8, align 8, !tbaa !15
  %15 = load i64, ptr %6, align 8, !tbaa !15
  %16 = icmp slt i64 %14, %15
  br i1 %16, label %18, label %17

17:                                               ; preds = %13
  call void @llvm.lifetime.end.p0(i64 8, ptr %8) #13
  br label %29

18:                                               ; preds = %13
  %19 = load ptr, ptr %5, align 8, !tbaa !35
  %20 = load ptr, ptr %7, align 8, !tbaa !16
  %21 = load i64, ptr %8, align 8, !tbaa !15
  %22 = getelementptr inbounds i8, ptr %20, i64 %21
  %23 = load i8, ptr %22, align 1, !tbaa !28
  %24 = zext i8 %23 to i64
  %25 = getelementptr inbounds nuw i8, ptr %19, i64 %24
  store i8 1, ptr %25, align 1, !tbaa !30
  br label %26

26:                                               ; preds = %18
  %27 = load i64, ptr %8, align 8, !tbaa !15
  %28 = add nsw i64 %27, 1
  store i64 %28, ptr %8, align 8, !tbaa !15
  br label %13, !llvm.loop !37

29:                                               ; preds = %17
  call void @llvm.lifetime.end.p0(i64 8, ptr %7) #13
  call void @llvm.lifetime.end.p0(i64 8, ptr %6) #13
  ret void
}

; Function Attrs: mustprogress nounwind uwtable
define noundef i64 @_ZNK6google8protobuf11StringPiece17find_first_not_ofEcm(ptr noundef nonnull align 8 dereferenceable(16) %0, i8 noundef signext %1, i64 noundef %2) #2 align 2 {
  %4 = alloca i64, align 8
  %5 = alloca ptr, align 8
  %6 = alloca i8, align 1
  %7 = alloca i64, align 8
  store ptr %0, ptr %5, align 8, !tbaa !8
  store i8 %1, ptr %6, align 1, !tbaa !28
  store i64 %2, ptr %7, align 8, !tbaa !15
  %8 = load ptr, ptr %5, align 8
  %9 = getelementptr inbounds nuw %"class.google::protobuf::StringPiece", ptr %8, i32 0, i32 1
  %10 = load i64, ptr %9, align 8, !tbaa !14
  %11 = icmp sle i64 %10, 0
  br i1 %11, label %12, label %13

12:                                               ; preds = %3
  store i64 -1, ptr %4, align 8
  br label %36

13:                                               ; preds = %3
  br label %14

14:                                               ; preds = %32, %13
  %15 = load i64, ptr %7, align 8, !tbaa !15
  %16 = getelementptr inbounds nuw %"class.google::protobuf::StringPiece", ptr %8, i32 0, i32 1
  %17 = load i64, ptr %16, align 8, !tbaa !14
  %18 = icmp ult i64 %15, %17
  br i1 %18, label %19, label %35

19:                                               ; preds = %14
  %20 = getelementptr inbounds nuw %"class.google::protobuf::StringPiece", ptr %8, i32 0, i32 0
  %21 = load ptr, ptr %20, align 8, !tbaa !10
  %22 = load i64, ptr %7, align 8, !tbaa !15
  %23 = getelementptr inbounds nuw i8, ptr %21, i64 %22
  %24 = load i8, ptr %23, align 1, !tbaa !28
  %25 = sext i8 %24 to i32
  %26 = load i8, ptr %6, align 1, !tbaa !28
  %27 = sext i8 %26 to i32
  %28 = icmp ne i32 %25, %27
  br i1 %28, label %29, label %31

29:                                               ; preds = %19
  %30 = load i64, ptr %7, align 8, !tbaa !15
  store i64 %30, ptr %4, align 8
  br label %36

31:                                               ; preds = %19
  br label %32

32:                                               ; preds = %31
  %33 = load i64, ptr %7, align 8, !tbaa !15
  %34 = add i64 %33, 1
  store i64 %34, ptr %7, align 8, !tbaa !15
  br label %14, !llvm.loop !39

35:                                               ; preds = %14
  store i64 -1, ptr %4, align 8
  br label %36

36:                                               ; preds = %35, %29, %12
  %37 = load i64, ptr %4, align 8
  ret i64 %37
}

; Function Attrs: mustprogress uwtable
define noundef i64 @_ZNK6google8protobuf11StringPiece17find_first_not_ofES1_m(ptr noundef nonnull align 8 dereferenceable(16) %0, ptr %1, i64 %2, i64 noundef %3) #0 align 2 {
  %5 = alloca i64, align 8
  %6 = alloca %"class.google::protobuf::StringPiece", align 8
  %7 = alloca ptr, align 8
  %8 = alloca i64, align 8
  %9 = alloca [256 x i8], align 16
  %10 = alloca %"class.google::protobuf::StringPiece", align 8
  %11 = alloca i64, align 8
  %12 = alloca i32, align 4
  %13 = getelementptr inbounds nuw { ptr, i64 }, ptr %6, i32 0, i32 0
  store ptr %1, ptr %13, align 8
  %14 = getelementptr inbounds nuw { ptr, i64 }, ptr %6, i32 0, i32 1
  store i64 %2, ptr %14, align 8
  store ptr %0, ptr %7, align 8, !tbaa !8
  store i64 %3, ptr %8, align 8, !tbaa !15
  %15 = load ptr, ptr %7, align 8
  %16 = getelementptr inbounds nuw %"class.google::protobuf::StringPiece", ptr %15, i32 0, i32 1
  %17 = load i64, ptr %16, align 8, !tbaa !14
  %18 = icmp sle i64 %17, 0
  br i1 %18, label %19, label %20

19:                                               ; preds = %4
  store i64 -1, ptr %5, align 8
  br label %69

20:                                               ; preds = %4
  %21 = getelementptr inbounds nuw %"class.google::protobuf::StringPiece", ptr %6, i32 0, i32 1
  %22 = load i64, ptr %21, align 8, !tbaa !14
  %23 = icmp sle i64 %22, 0
  br i1 %23, label %24, label %25

24:                                               ; preds = %20
  store i64 0, ptr %5, align 8
  br label %69

25:                                               ; preds = %20
  %26 = getelementptr inbounds nuw %"class.google::protobuf::StringPiece", ptr %6, i32 0, i32 1
  %27 = load i64, ptr %26, align 8, !tbaa !14
  %28 = icmp eq i64 %27, 1
  br i1 %28, label %29, label %36

29:                                               ; preds = %25
  %30 = getelementptr inbounds nuw %"class.google::protobuf::StringPiece", ptr %6, i32 0, i32 0
  %31 = load ptr, ptr %30, align 8, !tbaa !10
  %32 = getelementptr inbounds i8, ptr %31, i64 0
  %33 = load i8, ptr %32, align 1, !tbaa !28
  %34 = load i64, ptr %8, align 8, !tbaa !15
  %35 = call noundef i64 @_ZNK6google8protobuf11StringPiece17find_first_not_ofEcm(ptr noundef nonnull align 8 dereferenceable(16) %15, i8 noundef signext %33, i64 noundef %34)
  store i64 %35, ptr %5, align 8
  br label %69

36:                                               ; preds = %25
  call void @llvm.lifetime.start.p0(i64 256, ptr %9) #13
  call void @llvm.memset.p0.i64(ptr align 16 %9, i8 0, i64 256, i1 false)
  call void @llvm.memcpy.p0.p0.i64(ptr align 8 %10, ptr align 8 %6, i64 16, i1 false), !tbaa.struct !27
  %37 = getelementptr inbounds [256 x i8], ptr %9, i64 0, i64 0
  %38 = getelementptr inbounds nuw { ptr, i64 }, ptr %10, i32 0, i32 0
  %39 = load ptr, ptr %38, align 8
  %40 = getelementptr inbounds nuw { ptr, i64 }, ptr %10, i32 0, i32 1
  %41 = load i64, ptr %40, align 8
  call void @_ZN6google8protobufL16BuildLookupTableENS0_11StringPieceEPb(ptr %39, i64 %41, ptr noundef %37)
  call void @llvm.lifetime.start.p0(i64 8, ptr %11) #13
  %42 = load i64, ptr %8, align 8, !tbaa !15
  store i64 %42, ptr %11, align 8, !tbaa !15
  br label %43

43:                                               ; preds = %62, %36
  %44 = load i64, ptr %11, align 8, !tbaa !15
  %45 = getelementptr inbounds nuw %"class.google::protobuf::StringPiece", ptr %15, i32 0, i32 1
  %46 = load i64, ptr %45, align 8, !tbaa !14
  %47 = icmp slt i64 %44, %46
  br i1 %47, label %49, label %48

48:                                               ; preds = %43
  store i32 2, ptr %12, align 4
  br label %65

49:                                               ; preds = %43
  %50 = getelementptr inbounds nuw %"class.google::protobuf::StringPiece", ptr %15, i32 0, i32 0
  %51 = load ptr, ptr %50, align 8, !tbaa !10
  %52 = load i64, ptr %11, align 8, !tbaa !15
  %53 = getelementptr inbounds i8, ptr %51, i64 %52
  %54 = load i8, ptr %53, align 1, !tbaa !28
  %55 = zext i8 %54 to i64
  %56 = getelementptr inbounds nuw [256 x i8], ptr %9, i64 0, i64 %55
  %57 = load i8, ptr %56, align 1, !tbaa !30, !range !32, !noundef !33
  %58 = trunc i8 %57 to i1
  br i1 %58, label %61, label %59

59:                                               ; preds = %49
  %60 = load i64, ptr %11, align 8, !tbaa !15
  store i64 %60, ptr %5, align 8
  store i32 1, ptr %12, align 4
  br label %65

61:                                               ; preds = %49
  br label %62

62:                                               ; preds = %61
  %63 = load i64, ptr %11, align 8, !tbaa !15
  %64 = add nsw i64 %63, 1
  store i64 %64, ptr %11, align 8, !tbaa !15
  br label %43, !llvm.loop !38

65:                                               ; preds = %59, %48
  call void @llvm.lifetime.end.p0(i64 8, ptr %11) #13
  %66 = load i32, ptr %12, align 4
  switch i32 %66, label %68 [
    i32 2, label %67
  ]

67:                                               ; preds = %65
  store i64 -1, ptr %5, align 8
  store i32 1, ptr %12, align 4
  br label %68

68:                                               ; preds = %67, %65
  call void @llvm.lifetime.end.p0(i64 256, ptr %9) #13
  br label %69

69:                                               ; preds = %68, %29, %24, %19
  %70 = load i64, ptr %5, align 8
  ret i64 %70
}