; Function Attrs: mustprogress nofree norecurse nosync nounwind willreturn memory(read, inaccessiblemem: none) uwtable
define noundef i64 @_ZNK6google8protobuf11StringPiece17find_first_not_ofES1_m(ptr noundef nonnull readonly align 8 captures(none) dereferenceable(16) %0, ptr readonly captures(none) %1, i64 %2, i64 noundef %3) local_unnamed_addr #10 align 2 {
  %5 = alloca [256 x i8], align 16
  %6 = getelementptr inbounds nuw i8, ptr %0, i64 8
  %7 = load i64, ptr %6, align 8, !tbaa !10
  %8 = icmp slt i64 %7, 1
  br i1 %8, label %_ZNK6google8protobuf11StringPiece17find_first_not_ofEcm.exit, label %9

9:                                                ; preds = %4
  %10 = icmp slt i64 %2, 1
  br i1 %10, label %_ZNK6google8protobuf11StringPiece17find_first_not_ofEcm.exit, label %11

11:                                               ; preds = %9
  %12 = icmp eq i64 %2, 1
  br i1 %12, label %13, label %22

13:                                               ; preds = %11
  %14 = load i8, ptr %1, align 1, !tbaa !16
  %15 = icmp ult i64 %3, %7
  br i1 %15, label %.lr.ph.i, label %_ZNK6google8protobuf11StringPiece17find_first_not_ofEcm.exit

.lr.ph.i:                                         ; preds = %13
  %16 = load ptr, ptr %0, align 8, !tbaa !3
  br label %17

17:                                               ; preds = %20, %.lr.ph.i
  %.07.i = phi i64 [ %3, %.lr.ph.i ], [ %21, %20 ]
  %18 = getelementptr inbounds nuw i8, ptr %16, i64 %.07.i
  %19 = load i8, ptr %18, align 1, !tbaa !16
  %.not.i = icmp eq i8 %19, %14
  br i1 %.not.i, label %20, label %_ZNK6google8protobuf11StringPiece17find_first_not_ofEcm.exit

20:                                               ; preds = %17
  %21 = add i64 %.07.i, 1
  %exitcond.not.i = icmp eq i64 %21, %7
  br i1 %exitcond.not.i, label %_ZNK6google8protobuf11StringPiece17find_first_not_ofEcm.exit, label %17, !llvm.loop !25

22:                                               ; preds = %11
  call void @llvm.lifetime.start.p0(i64 256, ptr nonnull %5) #16
  call void @llvm.memset.p0.i64(ptr noundef nonnull align 16 dereferenceable(256) %5, i8 0, i64 256, i1 false)
  br label %23

23:                                               ; preds = %23, %22
  %.05.i = phi i64 [ 0, %22 ], [ %28, %23 ]
  %24 = getelementptr inbounds nuw i8, ptr %1, i64 %.05.i
  %25 = load i8, ptr %24, align 1, !tbaa !16
  %26 = zext i8 %25 to i64
  %27 = getelementptr inbounds nuw i8, ptr %5, i64 %26
  store i8 1, ptr %27, align 1, !tbaa !19
  %28 = add nuw nsw i64 %.05.i, 1
  %exitcond.not.i14 = icmp eq i64 %28, %2
  br i1 %exitcond.not.i14, label %_ZN6google8protobufL16BuildLookupTableENS0_11StringPieceEPb.exit.preheader, label %23, !llvm.loop !21

_ZN6google8protobufL16BuildLookupTableENS0_11StringPieceEPb.exit.preheader: ; preds = %23
  %.not15 = icmp slt i64 %3, %7
  br i1 %.not15, label %.lr.ph, label %._crit_edge

.lr.ph:                                           ; preds = %_ZN6google8protobufL16BuildLookupTableENS0_11StringPieceEPb.exit.preheader
  %29 = load ptr, ptr %0, align 8, !tbaa !3
  br label %30

30:                                               ; preds = %.lr.ph, %_ZN6google8protobufL16BuildLookupTableENS0_11StringPieceEPb.exit
  %.01116 = phi i64 [ %3, %.lr.ph ], [ %37, %_ZN6google8protobufL16BuildLookupTableENS0_11StringPieceEPb.exit ]
  %31 = getelementptr inbounds i8, ptr %29, i64 %.01116
  %32 = load i8, ptr %31, align 1, !tbaa !16
  %33 = zext i8 %32 to i64
  %34 = getelementptr inbounds nuw [256 x i8], ptr %5, i64 0, i64 %33
  %35 = load i8, ptr %34, align 1, !tbaa !19, !range !22, !noundef !23
  %36 = trunc nuw i8 %35 to i1
  br i1 %36, label %_ZN6google8protobufL16BuildLookupTableENS0_11StringPieceEPb.exit, label %._crit_edge

_ZN6google8protobufL16BuildLookupTableENS0_11StringPieceEPb.exit: ; preds = %30
  %37 = add i64 %.01116, 1
  %exitcond.not = icmp eq i64 %37, %7
  br i1 %exitcond.not, label %._crit_edge, label %30, !llvm.loop !26

._crit_edge:                                      ; preds = %_ZN6google8protobufL16BuildLookupTableENS0_11StringPieceEPb.exit, %30, %_ZN6google8protobufL16BuildLookupTableENS0_11StringPieceEPb.exit.preheader
  %spec.select = phi i64 [ -1, %_ZN6google8protobufL16BuildLookupTableENS0_11StringPieceEPb.exit.preheader ], [ %.01116, %30 ], [ -1, %_ZN6google8protobufL16BuildLookupTableENS0_11StringPieceEPb.exit ]
  call void @llvm.lifetime.end.p0(i64 256, ptr nonnull %5) #16
  br label %_ZNK6google8protobuf11StringPiece17find_first_not_ofEcm.exit

_ZNK6google8protobuf11StringPiece17find_first_not_ofEcm.exit: ; preds = %20, %17, %13, %9, %4, %._crit_edge
  %.012 = phi i64 [ %spec.select, %._crit_edge ], [ -1, %4 ], [ 0, %9 ], [ -1, %13 ], [ -1, %20 ], [ %.07.i, %17 ]
  ret i64 %.012
}